; Function Attrs: mustprogress uwtable
define noundef i32 @_ZN16WirelessTimeline15find_packet_tsfEm(ptr nocapture noundef nonnull readonly align 8 dereferenceable(896) %0, i64 noundef %1) local_unnamed_addr #0 align 2 {
  %3 = load i32, ptr getelementptr inbounds (%struct._capture_file, ptr @cfile, i64 0, i32 13), align 8
  switch i32 %3, label %5 [
    i32 0, label %.loopexit
    i32 1, label %4
  ]

4:                                                ; preds = %2
  br label %.loopexit

5:                                                ; preds = %2
  %6 = add i32 %3, -1
  %7 = getelementptr inbounds i8, ptr %0, i64 888
  %8 = load ptr, ptr %7, align 8
  %9 = tail call noundef ptr @g_hash_table_lookup(ptr noundef %8, ptr noundef nonnull inttoptr (i64 1 to ptr))
  %10 = getelementptr inbounds i8, ptr %9, i64 24
  %11 = load i64, ptr %10, align 8
  %12 = load ptr, ptr %7, align 8
  %13 = zext i32 %6 to i64
  %14 = inttoptr i64 %13 to ptr
  %15 = tail call noundef ptr @g_hash_table_lookup(ptr noundef %12, ptr noundef %14)
  %16 = getelementptr inbounds i8, ptr %15, i64 24
  %17 = load i64, ptr %16, align 8
  %.not39 = icmp ugt i64 %17, %1
  br i1 %.not39, label %.lr.ph, label %.loopexit

._crit_edge.loopexit:                             ; preds = %26
  %18 = add nuw i32 %..026, 1
  br label %.loopexit

.lr.ph:                                           ; preds = %5, %26
  %.02143 = phi i32 [ %.021., %26 ], [ 1, %5 ]
  %.02242 = phi i64 [ %..022, %26 ], [ %17, %5 ]
  %.02441 = phi i64 [ %.024., %26 ], [ %11, %5 ]
  %.02640 = phi i32 [ %..026, %26 ], [ %6, %5 ]
  %19 = icmp ugt i64 %.02441, %1
  br i1 %19, label %.loopexit, label %20

20:                                               ; preds = %.lr.ph
  %21 = add i32 %.02143, %.02640
  %22 = lshr i32 %21, 1
  %23 = icmp eq i32 %22, %.02143
  br i1 %23, label %24, label %26

24:                                               ; preds = %20
  %25 = add nuw i32 %.02143, 1
  br label %.loopexit

26:                                               ; preds = %20
  %27 = load ptr, ptr %7, align 8
  %28 = zext nneg i32 %22 to i64
  %29 = inttoptr i64 %28 to ptr
  %30 = tail call noundef ptr @g_hash_table_lookup(ptr noundef %27, ptr noundef %29)
  %31 = getelementptr inbounds i8, ptr %30, i64 24
  %32 = load i64, ptr %31, align 8
  %.not34 = icmp ugt i64 %32, %1
  %..026 = select i1 %.not34, i32 %22, i32 %.02640
  %.024. = select i1 %.not34, i64 %.02441, i64 %32
  %..022 = select i1 %.not34, i64 %32, i64 %.02242
  %.021. = select i1 %.not34, i32 %.02143, i32 %22
  %.not = icmp ugt i64 %..022, %1
  br i1 %.not, label %.lr.ph, label %._crit_edge.loopexit, !llvm.loop !4

.loopexit:                                        ; preds = %.lr.ph, %5, %._crit_edge.loopexit, %2, %24, %4
  %.0 = phi i32 [ 1, %4 ], [ %25, %24 ], [ %3, %2 ], [ %3, %5 ], [ %18, %._crit_edge.loopexit ], [ %.02143, %.lr.ph ]
  ret i32 %.0
}